target datalayout = "e-m:e-p270:32:32-p271:32:32-p272:64:64-i64:64-i128:128-f80:128-n8:16:32:64-S128"
target triple = "x86_64-pc-linux-gnu"

@.str.106 = private unnamed_addr constant [2 x i8] c"r\00", align 1
@.str.112 = private unnamed_addr constant [19 x i8] c"/proc/%s/mountinfo\00", align 1
@.str.113 = private unnamed_addr constant [44 x i8] c"cannot read /proc/%s/mountinfo contents: %m\00", align 1
@.str.114 = private unnamed_addr constant [2 x i8] c" \00", align 1
@.str.115 = private unnamed_addr constant [39 x i8] c"Could not parse '%s' root mount for %s\00", align 1

; Function Attrs: inlinehint nounwind uwtable
define available_externally i64 @getline(ptr noundef %0, ptr noundef %1, ptr noundef %2) #6 {
  %4 = alloca ptr, align 8
  %5 = alloca ptr, align 8
  %6 = alloca ptr, align 8
  store ptr %0, ptr %4, align 8
  store ptr %1, ptr %5, align 8
  store ptr %2, ptr %6, align 8
  %7 = load ptr, ptr %4, align 8
  %8 = load ptr, ptr %5, align 8
  %9 = load ptr, ptr %6, align 8
  %10 = call i64 @__getdelim(ptr noundef %7, ptr noundef %8, i32 noundef 10, ptr noundef %9)
  ret i64 %10
}

; Function Attrs: nounwind uwtable
define internal ptr @_get_root_mount_mountinfo(ptr noundef %0, ptr noundef %1) #0 {
  %3 = alloca ptr, align 8
  %4 = alloca ptr, align 8
  %5 = alloca ptr, align 8
  %6 = alloca ptr, align 8
  %7 = alloca ptr, align 8
  %8 = alloca ptr, align 8
  %9 = alloca ptr, align 8
  %10 = alloca i64, align 8
  %11 = alloca i32, align 4
  %12 = alloca ptr, align 8
  %13 = alloca i8, align 1
  store ptr %0, ptr %3, align 8
  store ptr %1, ptr %4, align 8
  call void @llvm.lifetime.start.p0(i64 8, ptr %5) #10
  store ptr null, ptr %5, align 8
  call void @llvm.lifetime.start.p0(i64 8, ptr %6) #10
  store ptr null, ptr %6, align 8
  call void @llvm.lifetime.start.p0(i64 8, ptr %7) #10
  call void @llvm.lifetime.start.p0(i64 8, ptr %8) #10
  store ptr null, ptr %8, align 8
  call void @llvm.lifetime.start.p0(i64 8, ptr %9) #10
  store ptr null, ptr %9, align 8
  call void @llvm.lifetime.start.p0(i64 8, ptr %10) #10
  store i64 0, ptr %10, align 8
  call void @llvm.lifetime.start.p0(i64 4, ptr %11) #10
  store i32 0, ptr %11, align 4
  call void @llvm.lifetime.start.p0(i64 8, ptr %12) #10
  call void @llvm.lifetime.start.p0(i64 1, ptr %13) #10
  store i8 0, ptr %13, align 1
  %14 = load ptr, ptr %4, align 8
  %15 = call ptr (ptr, ...) @xstrdup_printf(ptr noundef @.str.112, ptr noundef %14)
  store ptr %15, ptr %5, align 8
  %16 = load ptr, ptr %5, align 8
  %17 = call noalias ptr @fopen(ptr noundef %16, ptr noundef @.str.106)
  store ptr %17, ptr %12, align 8
  call void @slurm_xfree(ptr noundef %5)
  %18 = load ptr, ptr %12, align 8
  %19 = icmp eq ptr %18, null
  br i1 %19, label %20, label %22

20:                                               ; preds = %2
  %21 = load ptr, ptr %4, align 8
  call void (ptr, ...) @fatal(ptr noundef @.str.113, ptr noundef %21) #11
  unreachable

22:                                               ; preds = %2
  br label %23

23:                                               ; preds = %62, %22
  %24 = load i8, ptr %13, align 1, !range !8, !noundef !9
  %25 = trunc i8 %24 to i1
  br i1 %25, label %30, label %26

26:                                               ; preds = %23
  %27 = load ptr, ptr %12, align 8
  %28 = call i64 @getline(ptr noundef %6, ptr noundef %10, ptr noundef %27)
  %29 = icmp ne i64 %28, -1
  br label %30

30:                                               ; preds = %26, %23
  %31 = phi i1 [ false, %23 ], [ %29, %26 ]
  br i1 %31, label %32, label %63

32:                                               ; preds = %30
  %33 = load ptr, ptr %6, align 8
  %34 = load ptr, ptr %3, align 8
  %35 = call ptr @xstrstr(ptr noundef %33, ptr noundef %34)
  %36 = icmp ne ptr %35, null
  br i1 %36, label %37, label %62

37:                                               ; preds = %32
  store i32 0, ptr %11, align 4
  %38 = load ptr, ptr %6, align 8
  %39 = call ptr @strtok_r(ptr noundef %38, ptr noundef @.str.114, ptr noundef %9) #10
  store ptr %39, ptr %7, align 8
  br label %40

40:                                               ; preds = %57, %37
  %41 = load ptr, ptr %7, align 8
  %42 = icmp ne ptr %41, null
  br i1 %42, label %43, label %61

43:                                               ; preds = %40
  %44 = load i32, ptr %11, align 4
  %45 = icmp eq i32 %44, 3
  br i1 %45, label %46, label %57

46:                                               ; preds = %43
  %47 = load ptr, ptr %7, align 8
  store ptr %47, ptr %8, align 8
  %48 = call ptr @strtok_r(ptr noundef null, ptr noundef @.str.114, ptr noundef %9) #10
  store ptr %48, ptr %7, align 8
  %49 = load ptr, ptr %7, align 8
  %50 = load ptr, ptr %3, align 8
  %51 = call i32 @xstrcmp(ptr noundef %49, ptr noundef %50)
  %52 = icmp ne i32 %51, 0
  br i1 %52, label %56, label %53

53:                                               ; preds = %46
  %54 = load ptr, ptr %8, align 8
  %55 = call ptr @xstrdup(ptr noundef %54)
  store ptr %55, ptr %8, align 8
  store i8 1, ptr %13, align 1
  br label %61

56:                                               ; preds = %46
  br label %57

57:                                               ; preds = %56, %43
  %58 = load i32, ptr %11, align 4
  %59 = add nsw i32 %58, 1
  store i32 %59, ptr %11, align 4
  %60 = call ptr @strtok_r(ptr noundef null, ptr noundef @.str.114, ptr noundef %9) #10
  store ptr %60, ptr %7, align 8
  br label %40, !llvm.loop !23

61:                                               ; preds = %53, %40
  br label %62

62:                                               ; preds = %61, %32
  br label %23, !llvm.loop !24

63:                                               ; preds = %30
  %64 = load ptr, ptr %6, align 8
  call void @free(ptr noundef %64) #10
  %65 = load ptr, ptr %12, align 8
  %66 = call i32 @fclose(ptr noundef %65)
  %67 = load ptr, ptr %8, align 8
  %68 = icmp ne ptr %67, null
  br i1 %68, label %73, label %69

69:                                               ; preds = %63
  %70 = load ptr, ptr %3, align 8
  %71 = load ptr, ptr %4, align 8
  %72 = call i32 (ptr, ...) @error(ptr noundef @.str.115, ptr noundef %70, ptr noundef %71)
  br label %73

73:                                               ; preds = %69, %63
  %74 = load ptr, ptr %8, align 8
  call void @llvm.lifetime.end.p0(i64 1, ptr %13) #10
  call void @llvm.lifetime.end.p0(i64 8, ptr %12) #10
  call void @llvm.lifetime.end.p0(i64 4, ptr %11) #10
  call void @llvm.lifetime.end.p0(i64 8, ptr %10) #10
  call void @llvm.lifetime.end.p0(i64 8, ptr %9) #10
  call void @llvm.lifetime.end.p0(i64 8, ptr %8) #10
  call void @llvm.lifetime.end.p0(i64 8, ptr %7) #10
  call void @llvm.lifetime.end.p0(i64 8, ptr %6) #10
  call void @llvm.lifetime.end.p0(i64 8, ptr %5) #10
  ret ptr %74
}