; Function Attrs: nounwind uwtable
define internal fastcc ptr @_get_root_mount_mountinfo(ptr noundef %0, ptr noundef %1) unnamed_addr #0 {
  %3 = alloca ptr, align 8
  %4 = alloca ptr, align 8
  %5 = alloca ptr, align 8
  %6 = alloca i64, align 8
  call void @llvm.lifetime.start.p0(i64 8, ptr nonnull %3) #17
  call void @llvm.lifetime.start.p0(i64 8, ptr nonnull %4) #17
  store ptr null, ptr %4, align 8
  call void @llvm.lifetime.start.p0(i64 8, ptr nonnull %5) #17
  store ptr null, ptr %5, align 8
  call void @llvm.lifetime.start.p0(i64 8, ptr nonnull %6) #17
  store i64 0, ptr %6, align 8
  %7 = tail call ptr (ptr, ...) @xstrdup_printf(ptr noundef nonnull @.str.112, ptr noundef %1) #17
  store ptr %7, ptr %3, align 8
  %8 = tail call noalias ptr @fopen(ptr noundef %7, ptr noundef nonnull @.str.106)
  call void @slurm_xfree(ptr noundef nonnull %3) #17
  %9 = icmp eq ptr %8, null
  br i1 %9, label %11, label %.preheader.preheader

.preheader.preheader:                             ; preds = %2
  %10 = call i64 @__getdelim(ptr noundef nonnull %4, ptr noundef nonnull %6, i32 noundef 10, ptr noundef nonnull %8) #17
  %.not40 = icmp eq i64 %10, -1
  br i1 %.not40, label %.critedge, label %.lr.ph42

11:                                               ; preds = %2
  call void (ptr, ...) @fatal(ptr noundef nonnull @.str.113, ptr noundef %1) #18
  unreachable

.lr.ph42:                                         ; preds = %.preheader.preheader, %.loopexit
  %.0193141 = phi ptr [ %.120, %.loopexit ], [ null, %.preheader.preheader ]
  %12 = load ptr, ptr %4, align 8
  %13 = call ptr @xstrstr(ptr noundef %12, ptr noundef %0) #17
  %.not21 = icmp eq ptr %13, null
  br i1 %.not21, label %.loopexit, label %14

14:                                               ; preds = %.lr.ph42
  %15 = load ptr, ptr %4, align 8
  %16 = call ptr @strtok_r(ptr noundef %15, ptr noundef nonnull @.str.114, ptr noundef nonnull %5) #17
  %.not2227 = icmp eq ptr %16, null
  br i1 %.not2227, label %.loopexit, label %.lr.ph

.lr.ph:                                           ; preds = %14, %22
  %.01730 = phi ptr [ %24, %22 ], [ %16, %14 ]
  %.01829 = phi i32 [ %23, %22 ], [ 0, %14 ]
  %.228 = phi ptr [ %.3, %22 ], [ %.0193141, %14 ]
  %17 = icmp eq i32 %.01829, 3
  br i1 %17, label %18, label %22

18:                                               ; preds = %.lr.ph
  %19 = call ptr @strtok_r(ptr noundef null, ptr noundef nonnull @.str.114, ptr noundef nonnull %5) #17
  %20 = call i32 @xstrcmp(ptr noundef %19, ptr noundef %0) #17
  %.not23 = icmp eq i32 %20, 0
  br i1 %.not23, label %.loopexit.thread, label %22

.loopexit.thread:                                 ; preds = %18
  %21 = call ptr @xstrdup(ptr noundef nonnull %.01730) #17
  br label %.critedge

22:                                               ; preds = %18, %.lr.ph
  %.3 = phi ptr [ %.01730, %18 ], [ %.228, %.lr.ph ]
  %23 = add nuw nsw i32 %.01829, 1
  %24 = call ptr @strtok_r(ptr noundef null, ptr noundef nonnull @.str.114, ptr noundef nonnull %5) #17
  %.not22 = icmp eq ptr %24, null
  br i1 %.not22, label %.loopexit, label %.lr.ph, !llvm.loop !28

.loopexit:                                        ; preds = %22, %14, %.lr.ph42
  %.120 = phi ptr [ %.0193141, %.lr.ph42 ], [ %.0193141, %14 ], [ %.3, %22 ]
  %25 = call i64 @__getdelim(ptr noundef nonnull %4, ptr noundef nonnull %6, i32 noundef 10, ptr noundef nonnull %8) #17
  %.not = icmp eq i64 %25, -1
  br i1 %.not, label %.critedge, label %.lr.ph42, !llvm.loop !29

.critedge:                                        ; preds = %.loopexit, %.preheader.preheader, %.loopexit.thread
  %.019.lcssa = phi ptr [ %21, %.loopexit.thread ], [ null, %.preheader.preheader ], [ %.120, %.loopexit ]
  %26 = load ptr, ptr %4, align 8
  call void @free(ptr noundef %26) #17
  %27 = call i32 @fclose(ptr noundef nonnull %8)
  %.not24 = icmp eq ptr %.019.lcssa, null
  br i1 %.not24, label %28, label %30

28:                                               ; preds = %.critedge
  %29 = call i32 (ptr, ...) @error(ptr noundef nonnull @.str.115, ptr noundef %0, ptr noundef %1) #17
  br label %30

30:                                               ; preds = %28, %.critedge
  call void @llvm.lifetime.end.p0(i64 8, ptr nonnull %6) #17
  call void @llvm.lifetime.end.p0(i64 8, ptr nonnull %5) #17
  call void @llvm.lifetime.end.p0(i64 8, ptr nonnull %4) #17
  call void @llvm.lifetime.end.p0(i64 8, ptr nonnull %3) #17
  ret ptr %.019.lcssa
}